; ModuleID = '21/351.c'
source_filename = "21/351.c"
target datalayout = "e-m:e-p270:32:32-p271:32:32-p272:64:64-i64:64-f80:128-n8:16:32:64-S128"
target triple = "x86_64-pc-linux-gnu"

@.str = private unnamed_addr constant [3 x i8] c"%d\00", align 1
@.str.1 = private unnamed_addr constant [4 x i8] c",%d\00", align 1
@.str.2 = private unnamed_addr constant [2 x i8] c"\0A\00", align 1

; Function Attrs: noinline nounwind uwtable
define dso_local void @main() #0 {
  %1 = alloca i32, align 4
  %2 = alloca i32, align 4
  %3 = alloca i32, align 4
  %4 = alloca [400 x i32], align 16
  %5 = alloca i32, align 4
  %6 = alloca i32, align 4
  %7 = alloca float, align 4
  %8 = alloca float, align 4
  store i32 0, i32* %5, align 4
  store float 0.000000e+00, float* %8, align 4
  %9 = call i32 (i8*, ...) @__isoc99_scanf(i8* getelementptr inbounds ([3 x i8], [3 x i8]* @.str, i64 0, i64 0), i32* %1)
  store i32 0, i32* %2, align 4
  br label %10

10:                                               ; preds = %26, %0
  %11 = load i32, i32* %2, align 4
  %12 = load i32, i32* %1, align 4
  %13 = sub nsw i32 %12, 1
  %14 = icmp sle i32 %11, %13
  br i1 %14, label %15, label %29

15:                                               ; preds = %10
  %16 = load i32, i32* %2, align 4
  %17 = sext i32 %16 to i64
  %18 = getelementptr inbounds [400 x i32], [400 x i32]* %4, i64 0, i64 %17
  %19 = call i32 (i8*, ...) @__isoc99_scanf(i8* getelementptr inbounds ([3 x i8], [3 x i8]* @.str, i64 0, i64 0), i32* %18)
  %20 = load i32, i32* %5, align 4
  %21 = load i32, i32* %2, align 4
  %22 = sext i32 %21 to i64
  %23 = getelementptr inbounds [400 x i32], [400 x i32]* %4, i64 0, i64 %22
  %24 = load i32, i32* %23, align 4
  %25 = add nsw i32 %20, %24
  store i32 %25, i32* %5, align 4
  br label %26

26:                                               ; preds = %15
  %27 = load i32, i32* %2, align 4
  %28 = add nsw i32 %27, 1
  store i32 %28, i32* %2, align 4
  br label %10

29:                                               ; preds = %10
  %30 = load i32, i32* %5, align 4
  %31 = sitofp i32 %30 to float
  %32 = load i32, i32* %1, align 4
  %33 = sitofp i32 %32 to float
  %34 = fdiv float %31, %33
  store float %34, float* %7, align 4
  store i32 0, i32* %2, align 4
  br label %35

35:                                               ; preds = %82, %29
  %36 = load i32, i32* %2, align 4
  %37 = load i32, i32* %1, align 4
  %38 = sub nsw i32 %37, 2
  %39 = icmp sle i32 %36, %38
  br i1 %39, label %40, label %85

40:                                               ; preds = %35
  store i32 0, i32* %3, align 4
  br label %41

41:                                               ; preds = %78, %40
  %42 = load i32, i32* %3, align 4
  %43 = load i32, i32* %1, align 4
  %44 = sub nsw i32 %43, 2
  %45 = load i32, i32* %2, align 4
  %46 = sub nsw i32 %44, %45
  %47 = icmp sle i32 %42, %46
  br i1 %47, label %48, label %81

48:                                               ; preds = %41
  %49 = load i32, i32* %3, align 4
  %50 = sext i32 %49 to i64
  %51 = getelementptr inbounds [400 x i32], [400 x i32]* %4, i64 0, i64 %50
  %52 = load i32, i32* %51, align 4
  %53 = load i32, i32* %3, align 4
  %54 = add nsw i32 %53, 1
  %55 = sext i32 %54 to i64
  %56 = getelementptr inbounds [400 x i32], [400 x i32]* %4, i64 0, i64 %55
  %57 = load i32, i32* %56, align 4
  %58 = icmp sgt i32 %52, %57
  br i1 %58, label %59, label %77

59:                                               ; preds = %48
  %60 = load i32, i32* %3, align 4
  %61 = sext i32 %60 to i64
  %62 = getelementptr inbounds [400 x i32], [400 x i32]* %4, i64 0, i64 %61
  %63 = load i32, i32* %62, align 4
  store i32 %63, i32* %6, align 4
  %64 = load i32, i32* %3, align 4
  %65 = add nsw i32 %64, 1
  %66 = sext i32 %65 to i64
  %67 = getelementptr inbounds [400 x i32], [400 x i32]* %4, i64 0, i64 %66
  %68 = load i32, i32* %67, align 4
  %69 = load i32, i32* %3, align 4
  %70 = sext i32 %69 to i64
  %71 = getelementptr inbounds [400 x i32], [400 x i32]* %4, i64 0, i64 %70
  store i32 %68, i32* %71, align 4
  %72 = load i32, i32* %6, align 4
  %73 = load i32, i32* %3, align 4
  %74 = add nsw i32 %73, 1
  %75 = sext i32 %74 to i64
  %76 = getelementptr inbounds [400 x i32], [400 x i32]* %4, i64 0, i64 %75
  store i32 %72, i32* %76, align 4
  br label %77

77:                                               ; preds = %59, %48
  br label %78

78:                                               ; preds = %77
  %79 = load i32, i32* %3, align 4
  %80 = add nsw i32 %79, 1
  store i32 %80, i32* %3, align 4
  br label %41

81:                                               ; preds = %41
  br label %82

82:                                               ; preds = %81
  %83 = load i32, i32* %2, align 4
  %84 = add nsw i32 %83, 1
  store i32 %84, i32* %2, align 4
  br label %35

85:                                               ; preds = %35
  store i32 0, i32* %2, align 4
  br label %86

86:                                               ; preds = %116, %85
  %87 = load i32, i32* %2, align 4
  %88 = load i32, i32* %1, align 4
  %89 = sub nsw i32 %88, 1
  %90 = icmp sle i32 %87, %89
  br i1 %90, label %91, label %119

91:                                               ; preds = %86
  %92 = load i32, i32* %2, align 4
  %93 = sext i32 %92 to i64
  %94 = getelementptr inbounds [400 x i32], [400 x i32]* %4, i64 0, i64 %93
  %95 = load i32, i32* %94, align 4
  %96 = sitofp i32 %95 to float
  %97 = load float, float* %7, align 4
  %98 = fsub float %96, %97
  %99 = fpext float %98 to double
  %100 = call double @llvm.fabs.f64(double %99)
  %101 = load float, float* %8, align 4
  %102 = fpext float %101 to double
  %103 = fcmp ogt double %100, %102
  br i1 %103, label %104, label %115

104:                                              ; preds = %91
  %105 = load i32, i32* %2, align 4
  %106 = sext i32 %105 to i64
  %107 = getelementptr inbounds [400 x i32], [400 x i32]* %4, i64 0, i64 %106
  %108 = load i32, i32* %107, align 4
  %109 = sitofp i32 %108 to float
  %110 = load float, float* %7, align 4
  %111 = fsub float %109, %110
  %112 = fpext float %111 to double
  %113 = call double @llvm.fabs.f64(double %112)
  %114 = fptrunc double %113 to float
  store float %114, float* %8, align 4
  br label %115

115:                                              ; preds = %104, %91
  br label %116

116:                                              ; preds = %115
  %117 = load i32, i32* %2, align 4
  %118 = add nsw i32 %117, 1
  store i32 %118, i32* %2, align 4
  br label %86

119:                                              ; preds = %86
  store i32 0, i32* %2, align 4
  store i32 0, i32* %3, align 4
  br label %120

120:                                              ; preds = %159, %119
  %121 = load i32, i32* %2, align 4
  %122 = load i32, i32* %1, align 4
  %123 = sub nsw i32 %122, 1
  %124 = icmp sle i32 %121, %123
  br i1 %124, label %125, label %162

125:                                              ; preds = %120
  %126 = load i32, i32* %2, align 4
  %127 = sext i32 %126 to i64
  %128 = getelementptr inbounds [400 x i32], [400 x i32]* %4, i64 0, i64 %127
  %129 = load i32, i32* %128, align 4
  %130 = sitofp i32 %129 to float
  %131 = load float, float* %7, align 4
  %132 = fsub float %130, %131
  %133 = fpext float %132 to double
  %134 = call double @llvm.fabs.f64(double %133)
  %135 = load float, float* %8, align 4
  %136 = fpext float %135 to double
  %137 = fsub double %134, %136
  %138 = call double @llvm.fabs.f64(double %137)
  %139 = fcmp ole double %138, 1.000000e-05
  br i1 %139, label %140, label %158

140:                                              ; preds = %125
  %141 = load i32, i32* %3, align 4
  %142 = icmp eq i32 %141, 0
  br i1 %142, label %143, label %149

143:                                              ; preds = %140
  %144 = load i32, i32* %2, align 4
  %145 = sext i32 %144 to i64
  %146 = getelementptr inbounds [400 x i32], [400 x i32]* %4, i64 0, i64 %145
  %147 = load i32, i32* %146, align 4
  %148 = call i32 (i8*, ...) @printf(i8* getelementptr inbounds ([3 x i8], [3 x i8]* @.str, i64 0, i64 0), i32 %147)
  br label %155

149:                                              ; preds = %140
  %150 = load i32, i32* %2, align 4
  %151 = sext i32 %150 to i64
  %152 = getelementptr inbounds [400 x i32], [400 x i32]* %4, i64 0, i64 %151
  %153 = load i32, i32* %152, align 4
  %154 = call i32 (i8*, ...) @printf(i8* getelementptr inbounds ([4 x i8], [4 x i8]* @.str.1, i64 0, i64 0), i32 %153)
  br label %155

155:                                              ; preds = %149, %143
  %156 = load i32, i32* %3, align 4
  %157 = add nsw i32 %156, 1
  store i32 %157, i32* %3, align 4
  br label %158

158:                                              ; preds = %155, %125
  br label %159

159:                                              ; preds = %158
  %160 = load i32, i32* %2, align 4
  %161 = add nsw i32 %160, 1
  store i32 %161, i32* %2, align 4
  br label %120

162:                                              ; preds = %120
  %163 = call i32 (i8*, ...) @printf(i8* getelementptr inbounds ([2 x i8], [2 x i8]* @.str.2, i64 0, i64 0))
  ret void
}

declare dso_local i32 @__isoc99_scanf(i8*, ...) #1

; Function Attrs: nounwind readnone speculatable willreturn
declare double @llvm.fabs.f64(double) #2

declare dso_local i32 @printf(i8*, ...) #1


!llvm.module.flags = !{!0}
!llvm.ident = !{!1}

!0 = !{i32 1, !"wchar_size", i32 4}
!1 = !{!"clang version 10.0.0-4ubuntu1 "}
